target datalayout = "e-m:e-p270:32:32-p271:32:32-p272:64:64-i64:64-i128:128-f80:128-n8:16:32:64-S128"
target triple = "x86_64-pc-linux-gnu"

%struct.HTable = type { i32, ptr }
%struct.Module_ = type { ptr, ptr, ptr, i16, i32, ptr, %struct.HTable, ptr, ptr, ptr, ptr, ptr, ptr, ptr, ptr, ptr }
%struct.Path_ = type { %union.SourceSpan, ptr, i32 }
%union.SourceSpan = type { i64 }
%struct.CompilationUnit_ = type { ptr, ptr, ptr, ptr, ptr, ptr, ptr, ptr, ptr, ptr, i32, ptr, i8, i8, i8, i8, ptr, ptr, ptr, ptr, ptr, ptr, ptr, ptr, ptr, ptr, ptr, ptr, %struct.HTable, i32, ptr, ptr, %struct.anon.85 }
%struct.anon.85 = type { ptr, ptr }
%struct.VHeader_ = type { i32, i32, [0 x i8] }

@.str.8 = private unnamed_addr constant [56 x i8] c"Module name here '%s' did not match actual module '%s'.\00", align 1

; Function Attrs: nounwind uwtable
define internal ptr @vec_new_(i64 noundef %0, i64 noundef %1) #0 {
  %3 = alloca i64, align 8
  %4 = alloca i64, align 8
  %5 = alloca ptr, align 8
  store i64 %0, ptr %3, align 8
  store i64 %1, ptr %4, align 8
  %6 = load i64, ptr %3, align 8
  %7 = load i64, ptr %4, align 8
  %8 = mul i64 %6, %7
  %9 = add i64 %8, 8
  %10 = call ptr @calloc_arena(i64 noundef %9)
  store ptr %10, ptr %5, align 8
  %11 = load i64, ptr %4, align 8
  %12 = trunc i64 %11 to i32
  %13 = load ptr, ptr %5, align 8
  %14 = getelementptr inbounds %struct.VHeader_, ptr %13, i32 0, i32 1
  store i32 %12, ptr %14, align 4
  %15 = load ptr, ptr %5, align 8
  ret ptr %15
}

; Function Attrs: nounwind uwtable
define internal ptr @expand_(ptr noundef %0, i64 noundef %1) #0 {
  %3 = alloca ptr, align 8
  %4 = alloca i64, align 8
  %5 = alloca ptr, align 8
  %6 = alloca ptr, align 8
  %7 = alloca i64, align 8
  store ptr %0, ptr %3, align 8
  store i64 %1, ptr %4, align 8
  %8 = load ptr, ptr %3, align 8
  %9 = icmp ne ptr %8, null
  br i1 %9, label %13, label %10

10:                                               ; preds = %2
  %11 = load i64, ptr %4, align 8
  %12 = call ptr @vec_new_(i64 noundef %11, i64 noundef 8)
  store ptr %12, ptr %5, align 8
  br label %16

13:                                               ; preds = %2
  %14 = load ptr, ptr %3, align 8
  %15 = getelementptr inbounds %struct.VHeader_, ptr %14, i64 -1
  store ptr %15, ptr %5, align 8
  br label %16

16:                                               ; preds = %13, %10
  %17 = load ptr, ptr %5, align 8
  %18 = getelementptr inbounds %struct.VHeader_, ptr %17, i32 0, i32 0
  %19 = load i32, ptr %18, align 4
  %20 = load ptr, ptr %5, align 8
  %21 = getelementptr inbounds %struct.VHeader_, ptr %20, i32 0, i32 1
  %22 = load i32, ptr %21, align 4
  %23 = icmp eq i32 %19, %22
  br i1 %23, label %24, label %49

24:                                               ; preds = %16
  %25 = load i64, ptr %4, align 8
  %26 = load ptr, ptr %5, align 8
  %27 = getelementptr inbounds %struct.VHeader_, ptr %26, i32 0, i32 1
  %28 = load i32, ptr %27, align 4
  %29 = shl i32 %28, 1
  %30 = zext i32 %29 to i64
  %31 = call ptr @vec_new_(i64 noundef %25, i64 noundef %30)
  store ptr %31, ptr %6, align 8
  %32 = load i64, ptr %4, align 8
  %33 = load ptr, ptr %5, align 8
  %34 = getelementptr inbounds %struct.VHeader_, ptr %33, i32 0, i32 1
  %35 = load i32, ptr %34, align 4
  %36 = zext i32 %35 to i64
  %37 = mul i64 %32, %36
  %38 = add i64 %37, 8
  store i64 %38, ptr %7, align 8
  %39 = load ptr, ptr %6, align 8
  %40 = load ptr, ptr %5, align 8
  %41 = load i64, ptr %7, align 8
  call void @llvm.memcpy.p0.p0.i64(ptr align 4 %39, ptr align 4 %40, i64 %41, i1 false)
  %42 = load ptr, ptr %6, align 8
  store ptr %42, ptr %5, align 8
  %43 = load ptr, ptr %5, align 8
  %44 = getelementptr inbounds %struct.VHeader_, ptr %43, i32 0, i32 1
  %45 = load i32, ptr %44, align 4
  %46 = shl i32 %45, 1
  %47 = load ptr, ptr %6, align 8
  %48 = getelementptr inbounds %struct.VHeader_, ptr %47, i32 0, i32 1
  store i32 %46, ptr %48, align 4
  br label %49

49:                                               ; preds = %24, %16
  %50 = load ptr, ptr %5, align 8
  %51 = getelementptr inbounds %struct.VHeader_, ptr %50, i32 0, i32 0
  %52 = load i32, ptr %51, align 4
  %53 = add i32 %52, 1
  store i32 %53, ptr %51, align 4
  %54 = load ptr, ptr %5, align 8
  %55 = getelementptr inbounds %struct.VHeader_, ptr %54, i64 1
  ret ptr %55
}

; Function Attrs: nounwind uwtable
define internal zeroext i1 @create_module_or_check_name(ptr noundef %0, ptr noundef %1, ptr noundef %2) #0 {
  %4 = alloca i32, align 4
  %5 = alloca ptr, align 8
  %6 = alloca ptr, align 8
  %7 = alloca i1, align 1
  %8 = alloca ptr, align 8
  %9 = alloca ptr, align 8
  %10 = alloca ptr, align 8
  %11 = alloca ptr, align 8
  %12 = alloca ptr, align 8
  store ptr %0, ptr %8, align 8
  store ptr %1, ptr %9, align 8
  store ptr %2, ptr %10, align 8
  %13 = load ptr, ptr %8, align 8
  %14 = getelementptr inbounds %struct.CompilationUnit_, ptr %13, i32 0, i32 0
  %15 = load ptr, ptr %14, align 8
  store ptr %15, ptr %11, align 8
  %16 = load ptr, ptr %11, align 8
  %17 = icmp ne ptr %16, null
  br i1 %17, label %24, label %18

18:                                               ; preds = %3
  %19 = load ptr, ptr %9, align 8
  %20 = load ptr, ptr %10, align 8
  %21 = call ptr @compiler_find_or_create_module(ptr noundef %19, ptr noundef %20)
  %22 = load ptr, ptr %8, align 8
  %23 = getelementptr inbounds %struct.CompilationUnit_, ptr %22, i32 0, i32 0
  store ptr %21, ptr %23, align 8
  store ptr %21, ptr %11, align 8
  br label %50

24:                                               ; preds = %3
  %25 = load ptr, ptr %8, align 8
  %26 = getelementptr inbounds %struct.CompilationUnit_, ptr %25, i32 0, i32 0
  %27 = load ptr, ptr %26, align 8
  %28 = getelementptr inbounds %struct.Module_, ptr %27, i32 0, i32 0
  %29 = load ptr, ptr %28, align 8
  %30 = getelementptr inbounds %struct.Path_, ptr %29, i32 0, i32 1
  %31 = load ptr, ptr %30, align 8
  %32 = load ptr, ptr %9, align 8
  %33 = getelementptr inbounds %struct.Path_, ptr %32, i32 0, i32 1
  %34 = load ptr, ptr %33, align 8
  %35 = icmp ne ptr %31, %34
  br i1 %35, label %36, label %49

36:                                               ; preds = %24
  %37 = load ptr, ptr %9, align 8
  %38 = getelementptr inbounds %struct.Path_, ptr %37, i32 0, i32 0
  %39 = load ptr, ptr %9, align 8
  %40 = getelementptr inbounds %struct.Path_, ptr %39, i32 0, i32 1
  %41 = load ptr, ptr %40, align 8
  %42 = load ptr, ptr %11, align 8
  %43 = getelementptr inbounds %struct.Module_, ptr %42, i32 0, i32 0
  %44 = load ptr, ptr %43, align 8
  %45 = getelementptr inbounds %struct.Path_, ptr %44, i32 0, i32 1
  %46 = load ptr, ptr %45, align 8
  %47 = getelementptr inbounds %union.SourceSpan, ptr %38, i32 0, i32 0
  %48 = load i64, ptr %47, align 8
  call void (i64, ptr, ...) @sema_error_at(i64 %48, ptr noundef @.str.8, ptr noundef %41, ptr noundef %46)
  store i1 false, ptr %7, align 1
  br label %80

49:                                               ; preds = %24
  br label %50

50:                                               ; preds = %49, %18
  br label %51

51:                                               ; preds = %50
  %52 = load ptr, ptr %11, align 8
  %53 = getelementptr inbounds %struct.Module_, ptr %52, i32 0, i32 7
  %54 = load ptr, ptr %53, align 8
  %55 = call ptr @expand_(ptr noundef %54, i64 noundef 8)
  store ptr %55, ptr %12, align 8
  %56 = load ptr, ptr %12, align 8
  %57 = load ptr, ptr %11, align 8
  %58 = getelementptr inbounds %struct.Module_, ptr %57, i32 0, i32 7
  store ptr %56, ptr %58, align 8
  %59 = load ptr, ptr %8, align 8
  %60 = load ptr, ptr %11, align 8
  %61 = getelementptr inbounds %struct.Module_, ptr %60, i32 0, i32 7
  %62 = load ptr, ptr %61, align 8
  %63 = load ptr, ptr %11, align 8
  %64 = getelementptr inbounds %struct.Module_, ptr %63, i32 0, i32 7
  %65 = load ptr, ptr %64, align 8
  store ptr %65, ptr %5, align 8
  %66 = load ptr, ptr %5, align 8
  %67 = icmp ne ptr %66, null
  br i1 %67, label %69, label %68

68:                                               ; preds = %51
  store i32 0, ptr %4, align 4
  br label %74

69:                                               ; preds = %51
  %70 = load ptr, ptr %5, align 8
  store ptr %70, ptr %6, align 8
  %71 = load ptr, ptr %6, align 8
  %72 = getelementptr inbounds %struct.VHeader_, ptr %71, i64 -1
  %73 = load i32, ptr %72, align 4
  store i32 %73, ptr %4, align 4
  br label %74

74:                                               ; preds = %69, %68
  %75 = load i32, ptr %4, align 4
  %76 = sub i32 %75, 1
  %77 = zext i32 %76 to i64
  %78 = getelementptr inbounds ptr, ptr %62, i64 %77
  store ptr %59, ptr %78, align 8
  br label %79

79:                                               ; preds = %74
  store i1 true, ptr %7, align 1
  br label %80

80:                                               ; preds = %79, %36
  %81 = load i1, ptr %7, align 1
  ret i1 %81
}