; Function Attrs: nounwind uwtable
define internal fastcc noundef zeroext i1 @create_module_or_check_name(ptr noundef %0, ptr noundef %1, ptr noundef %2) unnamed_addr #0 {
  %4 = load ptr, ptr %0, align 8
  %.not = icmp eq ptr %4, null
  br i1 %.not, label %5, label %7

5:                                                ; preds = %3
  %6 = tail call ptr @compiler_find_or_create_module(ptr noundef %1, ptr noundef %2) #6
  store ptr %6, ptr %0, align 8
  br label %15

7:                                                ; preds = %3
  %8 = load ptr, ptr %4, align 8
  %9 = getelementptr inbounds i8, ptr %8, i64 8
  %10 = load ptr, ptr %9, align 8
  %11 = getelementptr inbounds i8, ptr %1, i64 8
  %12 = load ptr, ptr %11, align 8
  %.not26 = icmp eq ptr %10, %12
  br i1 %.not26, label %15, label %13

13:                                               ; preds = %7
  %14 = load i64, ptr %1, align 8
  tail call void (i64, ptr, ...) @sema_error_at(i64 %14, ptr noundef nonnull @.str.8, ptr noundef %12, ptr noundef %10) #6
  br label %49

15:                                               ; preds = %5, %7
  %.020 = phi ptr [ %4, %7 ], [ %6, %5 ]
  %16 = getelementptr inbounds i8, ptr %.020, i64 56
  %17 = load ptr, ptr %16, align 8
  %.not.i = icmp eq ptr %17, null
  br i1 %.not.i, label %18, label %21

18:                                               ; preds = %15
  %19 = tail call ptr @calloc_arena(i64 noundef 72) #6
  %20 = getelementptr inbounds i8, ptr %19, i64 4
  store i32 8, ptr %20, align 4
  br label %23

21:                                               ; preds = %15
  %22 = getelementptr inbounds i8, ptr %17, i64 -8
  %.phi.trans.insert.i = getelementptr inbounds i8, ptr %17, i64 -4
  %.pre.i = load i32, ptr %.phi.trans.insert.i, align 4
  br label %23

23:                                               ; preds = %21, %18
  %24 = phi i32 [ %.pre.i, %21 ], [ 8, %18 ]
  %.0.i = phi ptr [ %22, %21 ], [ %19, %18 ]
  %25 = load i32, ptr %.0.i, align 4
  %26 = icmp eq i32 %25, %24
  br i1 %26, label %27, label %41

27:                                               ; preds = %23
  %28 = getelementptr inbounds i8, ptr %.0.i, i64 4
  %29 = shl i32 %24, 1
  %30 = zext i32 %29 to i64
  %31 = shl nuw nsw i64 %30, 3
  %32 = or disjoint i64 %31, 8
  %33 = tail call ptr @calloc_arena(i64 noundef %32) #6
  %34 = getelementptr inbounds i8, ptr %33, i64 4
  store i32 %29, ptr %34, align 4
  %35 = load i32, ptr %28, align 4
  %36 = zext i32 %35 to i64
  %37 = shl nuw nsw i64 %36, 3
  %38 = add nuw nsw i64 %37, 8
  tail call void @llvm.memcpy.p0.p0.i64(ptr noundef nonnull align 4 dereferenceable(1) %33, ptr noundef nonnull align 4 dereferenceable(1) %.0.i, i64 %38, i1 false)
  %39 = load i32, ptr %34, align 4
  %40 = shl i32 %39, 1
  store i32 %40, ptr %34, align 4
  %.pre18.i = load i32, ptr %33, align 4
  br label %41

41:                                               ; preds = %23, %27
  %42 = phi i32 [ %.pre18.i, %27 ], [ %25, %23 ]
  %.1.i = phi ptr [ %33, %27 ], [ %.0.i, %23 ]
  %43 = add i32 %42, 1
  store i32 %43, ptr %.1.i, align 4
  %44 = getelementptr inbounds i8, ptr %.1.i, i64 8
  store ptr %44, ptr %16, align 8
  %45 = load i32, ptr %.1.i, align 4
  %46 = add i32 %45, -1
  %47 = zext i32 %46 to i64
  %48 = getelementptr inbounds ptr, ptr %44, i64 %47
  store ptr %0, ptr %48, align 8
  br label %49

49:                                               ; preds = %41, %13
  %.021 = phi i1 [ false, %13 ], [ true, %41 ]
  ret i1 %.021
}